; Function Attrs: nounwind uwtable
define ptr @l_Lean_CodeAction_initFn____x40_Lean_Server_CodeActions_Attr___hyg_1057____lambda__3___boxed(ptr noundef %0, ptr noundef %1, ptr noundef %2, ptr noundef %3, ptr noundef %4, ptr noundef %5) #0 {
  %7 = ptrtoint ptr %2 to i64
  %8 = and i64 %7, 1
  %.not = icmp eq i64 %8, 0
  br i1 %.not, label %9, label %lean_dec.exit

9:                                                ; preds = %6
  %10 = load i32, ptr %2, align 4, !tbaa !8
  %11 = icmp sgt i32 %10, 1
  br i1 %11, label %12, label %14, !prof !11

12:                                               ; preds = %9
  %13 = add nsw i32 %10, -1
  store i32 %13, ptr %2, align 4, !tbaa !8
  br label %lean_dec.exit

14:                                               ; preds = %9
  %.not.i = icmp eq i32 %10, 0
  br i1 %.not.i, label %lean_dec.exit, label %15

15:                                               ; preds = %14
  tail call void @lean_dec_ref_cold(ptr noundef nonnull %2) #5
  br label %lean_dec.exit

lean_dec.exit:                                    ; preds = %15, %14, %12, %6
  %16 = lshr i64 %7, 1
  %17 = trunc i64 %16 to i8
  %18 = tail call ptr @l_Lean_CodeAction_initFn____x40_Lean_Server_CodeActions_Attr___hyg_1057____lambda__3(ptr noundef %0, ptr noundef %1, i8 noundef zeroext %17, ptr noundef %3, ptr noundef %4, ptr noundef %5)
  ret ptr %18
}